target datalayout = "e-m:e-p270:32:32-p271:32:32-p272:64:64-i64:64-i128:128-f80:128-n8:16:32:64-S128"
target triple = "x86_64-pc-linux-gnu"

%struct.LZ4F_CustomMem = type { ptr, ptr, ptr, ptr }
%struct.LZ4F_preferences_t = type { %struct.LZ4F_frameInfo_t, i32, i32, i32, [3 x i32] }
%struct.LZ4F_frameInfo_t = type { i32, i32, i32, i32, i64, i32, i32 }
%struct.LZ4F_cctx_s = type { %struct.LZ4F_CustomMem, %struct.LZ4F_preferences_t, i32, i32, ptr, i64, i64, ptr, ptr, i64, i64, %struct.XXH32_state_s, ptr, i16, i16, i32 }
%struct.XXH32_state_s = type { i32, i32, i32, i32, i32, i32, [4 x i32], i32, i32 }

; Function Attrs: nounwind uwtable
define internal void @LZ4F_writeLE32(ptr noundef %0, i32 noundef %1) #0 {
  %3 = alloca ptr, align 8
  %4 = alloca i32, align 4
  %5 = alloca ptr, align 8
  store ptr %0, ptr %3, align 8, !tbaa !12
  store i32 %1, ptr %4, align 4, !tbaa !10
  call void @llvm.lifetime.start.p0(i64 8, ptr %5) #8
  %6 = load ptr, ptr %3, align 8, !tbaa !12
  store ptr %6, ptr %5, align 8, !tbaa !7
  %7 = load i32, ptr %4, align 4, !tbaa !10
  %8 = trunc i32 %7 to i8
  %9 = load ptr, ptr %5, align 8, !tbaa !7
  %10 = getelementptr inbounds i8, ptr %9, i64 0
  store i8 %8, ptr %10, align 1, !tbaa !16
  %11 = load i32, ptr %4, align 4, !tbaa !10
  %12 = lshr i32 %11, 8
  %13 = trunc i32 %12 to i8
  %14 = load ptr, ptr %5, align 8, !tbaa !7
  %15 = getelementptr inbounds i8, ptr %14, i64 1
  store i8 %13, ptr %15, align 1, !tbaa !16
  %16 = load i32, ptr %4, align 4, !tbaa !10
  %17 = lshr i32 %16, 16
  %18 = trunc i32 %17 to i8
  %19 = load ptr, ptr %5, align 8, !tbaa !7
  %20 = getelementptr inbounds i8, ptr %19, i64 2
  store i8 %18, ptr %20, align 1, !tbaa !16
  %21 = load i32, ptr %4, align 4, !tbaa !10
  %22 = lshr i32 %21, 24
  %23 = trunc i32 %22 to i8
  %24 = load ptr, ptr %5, align 8, !tbaa !7
  %25 = getelementptr inbounds i8, ptr %24, i64 3
  store i8 %23, ptr %25, align 1, !tbaa !16
  call void @llvm.lifetime.end.p0(i64 8, ptr %5) #8
  ret void
}

; Function Attrs: nounwind uwtable
define internal void @LZ4F_localSaveDict(ptr noundef %0) #0 {
  %2 = alloca ptr, align 8
  %3 = alloca i32, align 4
  store ptr %0, ptr %2, align 8, !tbaa !23
  call void @llvm.lifetime.start.p0(i64 4, ptr %3) #8
  %4 = load ptr, ptr %2, align 8, !tbaa !23
  %5 = getelementptr inbounds nuw %struct.LZ4F_cctx_s, ptr %4, i32 0, i32 1
  %6 = getelementptr inbounds nuw %struct.LZ4F_preferences_t, ptr %5, i32 0, i32 1
  %7 = load i32, ptr %6, align 8, !tbaa !61
  %8 = icmp slt i32 %7, 2
  br i1 %8, label %9, label %17

9:                                                ; preds = %1
  %10 = load ptr, ptr %2, align 8, !tbaa !23
  %11 = getelementptr inbounds nuw %struct.LZ4F_cctx_s, ptr %10, i32 0, i32 12
  %12 = load ptr, ptr %11, align 8, !tbaa !44
  %13 = load ptr, ptr %2, align 8, !tbaa !23
  %14 = getelementptr inbounds nuw %struct.LZ4F_cctx_s, ptr %13, i32 0, i32 7
  %15 = load ptr, ptr %14, align 8, !tbaa !60
  %16 = call i32 @LZ4_saveDict(ptr noundef %12, ptr noundef %15, i32 noundef 65536)
  br label %25

17:                                               ; preds = %1
  %18 = load ptr, ptr %2, align 8, !tbaa !23
  %19 = getelementptr inbounds nuw %struct.LZ4F_cctx_s, ptr %18, i32 0, i32 12
  %20 = load ptr, ptr %19, align 8, !tbaa !44
  %21 = load ptr, ptr %2, align 8, !tbaa !23
  %22 = getelementptr inbounds nuw %struct.LZ4F_cctx_s, ptr %21, i32 0, i32 7
  %23 = load ptr, ptr %22, align 8, !tbaa !60
  %24 = call i32 @LZ4_saveDictHC(ptr noundef %20, ptr noundef %23, i32 noundef 65536)
  br label %25

25:                                               ; preds = %17, %9
  %26 = phi i32 [ %16, %9 ], [ %24, %17 ]
  store i32 %26, ptr %3, align 4, !tbaa !10
  %27 = load ptr, ptr %2, align 8, !tbaa !23
  %28 = getelementptr inbounds nuw %struct.LZ4F_cctx_s, ptr %27, i32 0, i32 7
  %29 = load ptr, ptr %28, align 8, !tbaa !60
  %30 = load i32, ptr %3, align 4, !tbaa !10
  %31 = sext i32 %30 to i64
  %32 = getelementptr inbounds i8, ptr %29, i64 %31
  %33 = load ptr, ptr %2, align 8, !tbaa !23
  %34 = getelementptr inbounds nuw %struct.LZ4F_cctx_s, ptr %33, i32 0, i32 8
  store ptr %32, ptr %34, align 8, !tbaa !66
  call void @llvm.lifetime.end.p0(i64 4, ptr %3) #8
  ret void
}

; Function Attrs: nounwind uwtable
define internal i64 @LZ4F_makeBlock(ptr noundef %0, ptr noundef %1, i64 noundef %2, ptr noundef %3, ptr noundef %4, i32 noundef %5, ptr noundef %6, i32 noundef %7) #0 {
  %9 = alloca ptr, align 8
  %10 = alloca ptr, align 8
  %11 = alloca i64, align 8
  %12 = alloca ptr, align 8
  %13 = alloca ptr, align 8
  %14 = alloca i32, align 4
  %15 = alloca ptr, align 8
  %16 = alloca i32, align 4
  %17 = alloca ptr, align 8
  %18 = alloca i32, align 4
  %19 = alloca i32, align 4
  %20 = alloca i32, align 4
  store ptr %0, ptr %9, align 8, !tbaa !12
  store ptr %1, ptr %10, align 8, !tbaa !12
  store i64 %2, ptr %11, align 8, !tbaa !3
  store ptr %3, ptr %12, align 8, !tbaa !12
  store ptr %4, ptr %13, align 8, !tbaa !12
  store i32 %5, ptr %14, align 4, !tbaa !10
  store ptr %6, ptr %15, align 8, !tbaa !25
  store i32 %7, ptr %16, align 4, !tbaa !10
  call void @llvm.lifetime.start.p0(i64 8, ptr %17) #8
  %21 = load ptr, ptr %9, align 8, !tbaa !12
  store ptr %21, ptr %17, align 8, !tbaa !7
  call void @llvm.lifetime.start.p0(i64 4, ptr %18) #8
  %22 = load i64, ptr %11, align 8, !tbaa !3
  %23 = icmp ugt i64 %22, 1
  br i1 %23, label %24, label %28

24:                                               ; preds = %8
  %25 = load i64, ptr %11, align 8, !tbaa !3
  %26 = trunc i64 %25 to i32
  %27 = sub nsw i32 %26, 1
  br label %29

28:                                               ; preds = %8
  br label %29

29:                                               ; preds = %28, %24
  %30 = phi i32 [ %27, %24 ], [ 1, %28 ]
  store i32 %30, ptr %18, align 4, !tbaa !10
  call void @llvm.lifetime.start.p0(i64 4, ptr %19) #8
  %31 = load ptr, ptr %12, align 8, !tbaa !12
  %32 = load ptr, ptr %13, align 8, !tbaa !12
  %33 = load ptr, ptr %10, align 8, !tbaa !12
  %34 = load ptr, ptr %17, align 8, !tbaa !7
  %35 = getelementptr inbounds nuw i8, ptr %34, i64 4
  %36 = load i64, ptr %11, align 8, !tbaa !3
  %37 = trunc i64 %36 to i32
  %38 = load i32, ptr %18, align 4, !tbaa !10
  %39 = load i32, ptr %14, align 4, !tbaa !10
  %40 = load ptr, ptr %15, align 8, !tbaa !25
  %41 = call i32 %31(ptr noundef %32, ptr noundef %33, ptr noundef %35, i32 noundef %37, i32 noundef %38, i32 noundef %39, ptr noundef %40)
  store i32 %41, ptr %19, align 4, !tbaa !10
  %42 = load i32, ptr %19, align 4, !tbaa !10
  %43 = icmp eq i32 %42, 0
  br i1 %43, label %49, label %44

44:                                               ; preds = %29
  %45 = load i32, ptr %19, align 4, !tbaa !10
  %46 = zext i32 %45 to i64
  %47 = load i64, ptr %11, align 8, !tbaa !3
  %48 = icmp uge i64 %46, %47
  br i1 %48, label %49, label %59

49:                                               ; preds = %44, %29
  %50 = load i64, ptr %11, align 8, !tbaa !3
  %51 = trunc i64 %50 to i32
  store i32 %51, ptr %19, align 4, !tbaa !10
  %52 = load ptr, ptr %17, align 8, !tbaa !7
  %53 = load i32, ptr %19, align 4, !tbaa !10
  %54 = or i32 %53, -2147483648
  call void @LZ4F_writeLE32(ptr noundef %52, i32 noundef %54)
  %55 = load ptr, ptr %17, align 8, !tbaa !7
  %56 = getelementptr inbounds nuw i8, ptr %55, i64 4
  %57 = load ptr, ptr %10, align 8, !tbaa !12
  %58 = load i64, ptr %11, align 8, !tbaa !3
  call void @llvm.memcpy.p0.p0.i64(ptr align 1 %56, ptr align 1 %57, i64 %58, i1 false)
  br label %62

59:                                               ; preds = %44
  %60 = load ptr, ptr %17, align 8, !tbaa !7
  %61 = load i32, ptr %19, align 4, !tbaa !10
  call void @LZ4F_writeLE32(ptr noundef %60, i32 noundef %61)
  br label %62

62:                                               ; preds = %59, %49
  %63 = load i32, ptr %16, align 4, !tbaa !10
  %64 = icmp ne i32 %63, 0
  br i1 %64, label %65, label %77

65:                                               ; preds = %62
  call void @llvm.lifetime.start.p0(i64 4, ptr %20) #8
  %66 = load ptr, ptr %17, align 8, !tbaa !7
  %67 = getelementptr inbounds nuw i8, ptr %66, i64 4
  %68 = load i32, ptr %19, align 4, !tbaa !10
  %69 = zext i32 %68 to i64
  %70 = call i32 @LZ4_XXH32(ptr noundef %67, i64 noundef %69, i32 noundef 0)
  store i32 %70, ptr %20, align 4, !tbaa !10
  %71 = load ptr, ptr %17, align 8, !tbaa !7
  %72 = getelementptr inbounds nuw i8, ptr %71, i64 4
  %73 = load i32, ptr %19, align 4, !tbaa !10
  %74 = zext i32 %73 to i64
  %75 = getelementptr inbounds nuw i8, ptr %72, i64 %74
  %76 = load i32, ptr %20, align 4, !tbaa !10
  call void @LZ4F_writeLE32(ptr noundef %75, i32 noundef %76)
  call void @llvm.lifetime.end.p0(i64 4, ptr %20) #8
  br label %77

77:                                               ; preds = %65, %62
  %78 = load i32, ptr %19, align 4, !tbaa !10
  %79 = zext i32 %78 to i64
  %80 = add i64 4, %79
  %81 = load i32, ptr %16, align 4, !tbaa !10
  %82 = zext i32 %81 to i64
  %83 = mul i64 %82, 4
  %84 = add i64 %80, %83
  call void @llvm.lifetime.end.p0(i64 4, ptr %19) #8
  call void @llvm.lifetime.end.p0(i64 4, ptr %18) #8
  call void @llvm.lifetime.end.p0(i64 8, ptr %17) #8
  ret i64 %84
}

; Function Attrs: nounwind uwtable
define internal ptr @LZ4F_selectCompression(i32 noundef %0, i32 noundef %1, i32 noundef %2) #0 {
  %4 = alloca ptr, align 8
  %5 = alloca i32, align 4
  %6 = alloca i32, align 4
  %7 = alloca i32, align 4
  store i32 %0, ptr %5, align 4, !tbaa !10
  store i32 %1, ptr %6, align 4, !tbaa !10
  store i32 %2, ptr %7, align 4, !tbaa !10
  %8 = load i32, ptr %7, align 4, !tbaa !10
  %9 = icmp eq i32 %8, 1
  br i1 %9, label %10, label %11

10:                                               ; preds = %3
  store ptr @LZ4F_doNotCompressBlock, ptr %4, align 8
  br label %24

11:                                               ; preds = %3
  %12 = load i32, ptr %6, align 4, !tbaa !10
  %13 = icmp slt i32 %12, 2
  br i1 %13, label %14, label %19

14:                                               ; preds = %11
  %15 = load i32, ptr %5, align 4, !tbaa !10
  %16 = icmp eq i32 %15, 1
  br i1 %16, label %17, label %18

17:                                               ; preds = %14
  store ptr @LZ4F_compressBlock, ptr %4, align 8
  br label %24

18:                                               ; preds = %14
  store ptr @LZ4F_compressBlock_continue, ptr %4, align 8
  br label %24

19:                                               ; preds = %11
  %20 = load i32, ptr %5, align 4, !tbaa !10
  %21 = icmp eq i32 %20, 1
  br i1 %21, label %22, label %23

22:                                               ; preds = %19
  store ptr @LZ4F_compressBlockHC, ptr %4, align 8
  br label %24

23:                                               ; preds = %19
  store ptr @LZ4F_compressBlockHC_continue, ptr %4, align 8
  br label %24

24:                                               ; preds = %23, %22, %18, %17, %10
  %25 = load ptr, ptr %4, align 8
  ret ptr %25
}

; Function Attrs: nounwind uwtable
define internal i64 @LZ4F_returnErrorCode(i32 noundef %0) #0 {
  %2 = alloca i32, align 4
  store i32 %0, ptr %2, align 4, !tbaa !10
  %3 = load i32, ptr %2, align 4, !tbaa !10
  %4 = zext i32 %3 to i64
  %5 = sub nsw i64 0, %4
  ret i64 %5
}

; Function Attrs: nounwind uwtable
define i64 @LZ4F_flush(ptr noundef %0, ptr noundef %1, i64 noundef %2, ptr noundef %3) #0 {
  %5 = alloca i64, align 8
  %6 = alloca ptr, align 8
  %7 = alloca ptr, align 8
  %8 = alloca i64, align 8
  %9 = alloca ptr, align 8
  %10 = alloca ptr, align 8
  %11 = alloca ptr, align 8
  %12 = alloca ptr, align 8
  %13 = alloca i32, align 4
  store ptr %0, ptr %6, align 8, !tbaa !23
  store ptr %1, ptr %7, align 8, !tbaa !12
  store i64 %2, ptr %8, align 8, !tbaa !3
  store ptr %3, ptr %9, align 8, !tbaa !12
  call void @llvm.lifetime.start.p0(i64 8, ptr %10) #8
  %14 = load ptr, ptr %7, align 8, !tbaa !12
  store ptr %14, ptr %10, align 8, !tbaa !7
  call void @llvm.lifetime.start.p0(i64 8, ptr %11) #8
  %15 = load ptr, ptr %10, align 8, !tbaa !7
  store ptr %15, ptr %11, align 8, !tbaa !7
  call void @llvm.lifetime.start.p0(i64 8, ptr %12) #8
  %16 = load ptr, ptr %6, align 8, !tbaa !23
  %17 = getelementptr inbounds nuw %struct.LZ4F_cctx_s, ptr %16, i32 0, i32 9
  %18 = load i64, ptr %17, align 8, !tbaa !67
  %19 = icmp eq i64 %18, 0
  br i1 %19, label %20, label %21

20:                                               ; preds = %4
  store i64 0, ptr %5, align 8
  store i32 1, ptr %13, align 4
  br label %124

21:                                               ; preds = %4
  br label %22

22:                                               ; preds = %21
  %23 = load ptr, ptr %6, align 8, !tbaa !23
  %24 = getelementptr inbounds nuw %struct.LZ4F_cctx_s, ptr %23, i32 0, i32 3
  %25 = load i32, ptr %24, align 4, !tbaa !38
  %26 = icmp ne i32 %25, 1
  br i1 %26, label %27, label %29

27:                                               ; preds = %22
  %28 = call i64 @LZ4F_returnErrorCode(i32 noundef 20)
  store i64 %28, ptr %5, align 8
  store i32 1, ptr %13, align 4
  br label %124

29:                                               ; preds = %22
  br label %30

30:                                               ; preds = %29
  br label %31

31:                                               ; preds = %30
  br label %32

32:                                               ; preds = %31
  %33 = load i64, ptr %8, align 8, !tbaa !3
  %34 = load ptr, ptr %6, align 8, !tbaa !23
  %35 = getelementptr inbounds nuw %struct.LZ4F_cctx_s, ptr %34, i32 0, i32 9
  %36 = load i64, ptr %35, align 8, !tbaa !67
  %37 = add i64 %36, 4
  %38 = add i64 %37, 4
  %39 = icmp ult i64 %33, %38
  br i1 %39, label %40, label %42

40:                                               ; preds = %32
  %41 = call i64 @LZ4F_returnErrorCode(i32 noundef 11)
  store i64 %41, ptr %5, align 8
  store i32 1, ptr %13, align 4
  br label %124

42:                                               ; preds = %32
  br label %43

43:                                               ; preds = %42
  br label %44

44:                                               ; preds = %43
  %45 = load ptr, ptr %6, align 8, !tbaa !23
  %46 = getelementptr inbounds nuw %struct.LZ4F_cctx_s, ptr %45, i32 0, i32 1
  %47 = getelementptr inbounds nuw %struct.LZ4F_preferences_t, ptr %46, i32 0, i32 0
  %48 = getelementptr inbounds nuw %struct.LZ4F_frameInfo_t, ptr %47, i32 0, i32 1
  %49 = load i32, ptr %48, align 4, !tbaa !65
  %50 = load ptr, ptr %6, align 8, !tbaa !23
  %51 = getelementptr inbounds nuw %struct.LZ4F_cctx_s, ptr %50, i32 0, i32 1
  %52 = getelementptr inbounds nuw %struct.LZ4F_preferences_t, ptr %51, i32 0, i32 1
  %53 = load i32, ptr %52, align 8, !tbaa !61
  %54 = load ptr, ptr %6, align 8, !tbaa !23
  %55 = getelementptr inbounds nuw %struct.LZ4F_cctx_s, ptr %54, i32 0, i32 15
  %56 = load i32, ptr %55, align 4, !tbaa !72
  %57 = call ptr @LZ4F_selectCompression(i32 noundef %49, i32 noundef %53, i32 noundef %56)
  store ptr %57, ptr %12, align 8, !tbaa !12
  %58 = load ptr, ptr %11, align 8, !tbaa !7
  %59 = load ptr, ptr %6, align 8, !tbaa !23
  %60 = getelementptr inbounds nuw %struct.LZ4F_cctx_s, ptr %59, i32 0, i32 8
  %61 = load ptr, ptr %60, align 8, !tbaa !66
  %62 = load ptr, ptr %6, align 8, !tbaa !23
  %63 = getelementptr inbounds nuw %struct.LZ4F_cctx_s, ptr %62, i32 0, i32 9
  %64 = load i64, ptr %63, align 8, !tbaa !67
  %65 = load ptr, ptr %12, align 8, !tbaa !12
  %66 = load ptr, ptr %6, align 8, !tbaa !23
  %67 = getelementptr inbounds nuw %struct.LZ4F_cctx_s, ptr %66, i32 0, i32 12
  %68 = load ptr, ptr %67, align 8, !tbaa !44
  %69 = load ptr, ptr %6, align 8, !tbaa !23
  %70 = getelementptr inbounds nuw %struct.LZ4F_cctx_s, ptr %69, i32 0, i32 1
  %71 = getelementptr inbounds nuw %struct.LZ4F_preferences_t, ptr %70, i32 0, i32 1
  %72 = load i32, ptr %71, align 8, !tbaa !61
  %73 = load ptr, ptr %6, align 8, !tbaa !23
  %74 = getelementptr inbounds nuw %struct.LZ4F_cctx_s, ptr %73, i32 0, i32 4
  %75 = load ptr, ptr %74, align 8, !tbaa !68
  %76 = load ptr, ptr %6, align 8, !tbaa !23
  %77 = getelementptr inbounds nuw %struct.LZ4F_cctx_s, ptr %76, i32 0, i32 1
  %78 = getelementptr inbounds nuw %struct.LZ4F_preferences_t, ptr %77, i32 0, i32 0
  %79 = getelementptr inbounds nuw %struct.LZ4F_frameInfo_t, ptr %78, i32 0, i32 6
  %80 = load i32, ptr %79, align 4, !tbaa !70
  %81 = call i64 @LZ4F_makeBlock(ptr noundef %58, ptr noundef %61, i64 noundef %64, ptr noundef %65, ptr noundef %68, i32 noundef %72, ptr noundef %75, i32 noundef %80)
  %82 = load ptr, ptr %11, align 8, !tbaa !7
  %83 = getelementptr inbounds nuw i8, ptr %82, i64 %81
  store ptr %83, ptr %11, align 8, !tbaa !7
  %84 = load ptr, ptr %6, align 8, !tbaa !23
  %85 = getelementptr inbounds nuw %struct.LZ4F_cctx_s, ptr %84, i32 0, i32 1
  %86 = getelementptr inbounds nuw %struct.LZ4F_preferences_t, ptr %85, i32 0, i32 0
  %87 = getelementptr inbounds nuw %struct.LZ4F_frameInfo_t, ptr %86, i32 0, i32 1
  %88 = load i32, ptr %87, align 4, !tbaa !65
  %89 = icmp eq i32 %88, 0
  br i1 %89, label %90, label %98

90:                                               ; preds = %44
  %91 = load ptr, ptr %6, align 8, !tbaa !23
  %92 = getelementptr inbounds nuw %struct.LZ4F_cctx_s, ptr %91, i32 0, i32 9
  %93 = load i64, ptr %92, align 8, !tbaa !67
  %94 = load ptr, ptr %6, align 8, !tbaa !23
  %95 = getelementptr inbounds nuw %struct.LZ4F_cctx_s, ptr %94, i32 0, i32 8
  %96 = load ptr, ptr %95, align 8, !tbaa !66
  %97 = getelementptr inbounds nuw i8, ptr %96, i64 %93
  store ptr %97, ptr %95, align 8, !tbaa !66
  br label %98

98:                                               ; preds = %90, %44
  %99 = load ptr, ptr %6, align 8, !tbaa !23
  %100 = getelementptr inbounds nuw %struct.LZ4F_cctx_s, ptr %99, i32 0, i32 9
  store i64 0, ptr %100, align 8, !tbaa !67
  %101 = load ptr, ptr %6, align 8, !tbaa !23
  %102 = getelementptr inbounds nuw %struct.LZ4F_cctx_s, ptr %101, i32 0, i32 8
  %103 = load ptr, ptr %102, align 8, !tbaa !66
  %104 = load ptr, ptr %6, align 8, !tbaa !23
  %105 = getelementptr inbounds nuw %struct.LZ4F_cctx_s, ptr %104, i32 0, i32 5
  %106 = load i64, ptr %105, align 8, !tbaa !64
  %107 = getelementptr inbounds nuw i8, ptr %103, i64 %106
  %108 = load ptr, ptr %6, align 8, !tbaa !23
  %109 = getelementptr inbounds nuw %struct.LZ4F_cctx_s, ptr %108, i32 0, i32 7
  %110 = load ptr, ptr %109, align 8, !tbaa !60
  %111 = load ptr, ptr %6, align 8, !tbaa !23
  %112 = getelementptr inbounds nuw %struct.LZ4F_cctx_s, ptr %111, i32 0, i32 6
  %113 = load i64, ptr %112, align 8, !tbaa !42
  %114 = getelementptr inbounds nuw i8, ptr %110, i64 %113
  %115 = icmp ugt ptr %107, %114
  br i1 %115, label %116, label %118

116:                                              ; preds = %98
  %117 = load ptr, ptr %6, align 8, !tbaa !23
  call void @LZ4F_localSaveDict(ptr noundef %117)
  br label %118

118:                                              ; preds = %116, %98
  %119 = load ptr, ptr %11, align 8, !tbaa !7
  %120 = load ptr, ptr %10, align 8, !tbaa !7
  %121 = ptrtoint ptr %119 to i64
  %122 = ptrtoint ptr %120 to i64
  %123 = sub i64 %121, %122
  store i64 %123, ptr %5, align 8
  store i32 1, ptr %13, align 4
  br label %124

124:                                              ; preds = %118, %40, %27, %20
  call void @llvm.lifetime.end.p0(i64 8, ptr %12) #8
  call void @llvm.lifetime.end.p0(i64 8, ptr %11) #8
  call void @llvm.lifetime.end.p0(i64 8, ptr %10) #8
  %125 = load i64, ptr %5, align 8
  ret i64 %125
}