; Function Attrs: nounwind uwtable
define range(i64 -20, 21474836480) i64 @LZ4F_flush(ptr noundef captures(none) %0, ptr noundef %1, i64 noundef %2, ptr readnone captures(none) %3) local_unnamed_addr #5 {
  %5 = getelementptr inbounds nuw i8, ptr %0, i64 136
  %6 = load i64, ptr %5, align 8, !tbaa !58
  %7 = icmp eq i64 %6, 0
  br i1 %7, label %109, label %8

8:                                                ; preds = %4
  %9 = getelementptr inbounds nuw i8, ptr %0, i64 92
  %10 = load i32, ptr %9, align 4, !tbaa !32
  %.not = icmp eq i32 %10, 1
  br i1 %.not, label %11, label %109

11:                                               ; preds = %8
  %12 = add i64 %6, 8
  %13 = icmp ult i64 %2, %12
  br i1 %13, label %109, label %14

14:                                               ; preds = %11
  %15 = getelementptr inbounds nuw i8, ptr %0, i64 36
  %16 = getelementptr inbounds nuw i8, ptr %0, i64 64
  %17 = load i32, ptr %16, align 8, !tbaa !53
  %18 = getelementptr inbounds nuw i8, ptr %0, i64 212
  %19 = load i32, ptr %18, align 4, !tbaa !65
  %20 = icmp eq i32 %19, 1
  br i1 %20, label %LZ4F_selectCompression.exit, label %21

21:                                               ; preds = %14
  %22 = load i32, ptr %15, align 4, !tbaa !56
  %23 = icmp slt i32 %17, 2
  %24 = icmp eq i32 %22, 1
  br i1 %23, label %25, label %26

25:                                               ; preds = %21
  %LZ4F_compressBlock.LZ4F_compressBlock_continue.i = select i1 %24, ptr @LZ4F_compressBlock, ptr @LZ4F_compressBlock_continue
  br label %LZ4F_selectCompression.exit

26:                                               ; preds = %21
  %LZ4F_compressBlockHC.LZ4F_compressBlockHC_continue.i = select i1 %24, ptr @LZ4F_compressBlockHC, ptr @LZ4F_compressBlockHC_continue
  br label %LZ4F_selectCompression.exit

LZ4F_selectCompression.exit:                      ; preds = %14, %25, %26
  %.0.i = phi ptr [ @LZ4F_doNotCompressBlock, %14 ], [ %LZ4F_compressBlock.LZ4F_compressBlock_continue.i, %25 ], [ %LZ4F_compressBlockHC.LZ4F_compressBlockHC_continue.i, %26 ]
  %27 = getelementptr inbounds nuw i8, ptr %0, i64 128
  %28 = load ptr, ptr %27, align 8, !tbaa !57
  %29 = getelementptr inbounds nuw i8, ptr %0, i64 200
  %30 = load ptr, ptr %29, align 8, !tbaa !38
  %31 = getelementptr inbounds nuw i8, ptr %0, i64 96
  %32 = load ptr, ptr %31, align 8, !tbaa !59
  %33 = getelementptr inbounds nuw i8, ptr %0, i64 60
  %34 = load i32, ptr %33, align 4, !tbaa !61
  %.not31 = icmp eq i64 %6, 1
  %35 = trunc i64 %6 to i32
  %36 = add nsw i32 %35, -1
  %37 = select i1 %.not31, i32 1, i32 %36
  %38 = getelementptr inbounds nuw i8, ptr %1, i64 4
  %39 = tail call i32 %.0.i(ptr noundef %30, ptr noundef %28, ptr noundef nonnull %38, i32 noundef %35, i32 noundef %37, i32 noundef %17, ptr noundef %32) #13
  %40 = icmp ne i32 %39, 0
  %41 = zext i32 %39 to i64
  %.not.i = icmp ugt i64 %6, %41
  %or.cond.i = and i1 %40, %.not.i
  %42 = getelementptr inbounds nuw i8, ptr %1, i64 1
  %43 = getelementptr inbounds nuw i8, ptr %1, i64 2
  br i1 %or.cond.i, label %54, label %44

44:                                               ; preds = %LZ4F_selectCompression.exit
  %45 = trunc i64 %6 to i8
  store i8 %45, ptr %1, align 1, !tbaa !18
  %46 = lshr i64 %6, 8
  %47 = trunc i64 %46 to i8
  store i8 %47, ptr %42, align 1, !tbaa !18
  %48 = lshr i64 %6, 16
  %49 = trunc i64 %48 to i8
  store i8 %49, ptr %43, align 1, !tbaa !18
  %50 = lshr i64 %6, 24
  %51 = trunc i64 %50 to i8
  %52 = or i8 %51, -128
  %53 = getelementptr inbounds nuw i8, ptr %1, i64 3
  store i8 %52, ptr %53, align 1, !tbaa !18
  tail call void @llvm.memcpy.p0.p0.i64(ptr nonnull align 1 %38, ptr align 1 %28, i64 %6, i1 false)
  %.pre32 = and i64 %6, 4294967295
  br label %63

54:                                               ; preds = %LZ4F_selectCompression.exit
  %55 = trunc i32 %39 to i8
  store i8 %55, ptr %1, align 1, !tbaa !18
  %56 = lshr i32 %39, 8
  %57 = trunc i32 %56 to i8
  store i8 %57, ptr %42, align 1, !tbaa !18
  %58 = lshr i32 %39, 16
  %59 = trunc i32 %58 to i8
  store i8 %59, ptr %43, align 1, !tbaa !18
  %60 = lshr i32 %39, 24
  %61 = trunc nuw i32 %60 to i8
  %62 = getelementptr inbounds nuw i8, ptr %1, i64 3
  store i8 %61, ptr %62, align 1, !tbaa !18
  br label %63

63:                                               ; preds = %54, %44
  %.pre.i.pre-phi = phi i64 [ %41, %54 ], [ %.pre32, %44 ]
  %.not30.i = icmp eq i32 %34, 0
  br i1 %.not30.i, label %LZ4F_makeBlock.exit, label %64

64:                                               ; preds = %63
  %65 = tail call i32 @LZ4_XXH32(ptr noundef nonnull %38, i64 noundef %.pre.i.pre-phi, i32 noundef 0) #13
  %66 = getelementptr inbounds nuw i8, ptr %38, i64 %.pre.i.pre-phi
  %67 = trunc i32 %65 to i8
  store i8 %67, ptr %66, align 1, !tbaa !18
  %68 = lshr i32 %65, 8
  %69 = trunc i32 %68 to i8
  %70 = getelementptr inbounds nuw i8, ptr %66, i64 1
  store i8 %69, ptr %70, align 1, !tbaa !18
  %71 = lshr i32 %65, 16
  %72 = trunc i32 %71 to i8
  %73 = getelementptr inbounds nuw i8, ptr %66, i64 2
  store i8 %72, ptr %73, align 1, !tbaa !18
  %74 = lshr i32 %65, 24
  %75 = trunc nuw i32 %74 to i8
  %76 = getelementptr inbounds nuw i8, ptr %66, i64 3
  store i8 %75, ptr %76, align 1, !tbaa !18
  br label %LZ4F_makeBlock.exit

LZ4F_makeBlock.exit:                              ; preds = %63, %64
  %77 = zext i32 %34 to i64
  %78 = shl nuw nsw i64 %77, 2
  %79 = add nuw nsw i64 %78, 4
  %80 = add nuw nsw i64 %79, %.pre.i.pre-phi
  %81 = load i32, ptr %15, align 4, !tbaa !56
  %82 = icmp eq i32 %81, 0
  %.pre = load ptr, ptr %27, align 8, !tbaa !57
  br i1 %82, label %83, label %86

83:                                               ; preds = %LZ4F_makeBlock.exit
  %84 = load i64, ptr %5, align 8, !tbaa !58
  %85 = getelementptr inbounds nuw i8, ptr %.pre, i64 %84
  store ptr %85, ptr %27, align 8, !tbaa !57
  br label %86

86:                                               ; preds = %83, %LZ4F_makeBlock.exit
  %87 = phi ptr [ %85, %83 ], [ %.pre, %LZ4F_makeBlock.exit ]
  store i64 0, ptr %5, align 8, !tbaa !58
  %88 = getelementptr inbounds nuw i8, ptr %0, i64 104
  %89 = load i64, ptr %88, align 8, !tbaa !55
  %90 = getelementptr inbounds nuw i8, ptr %87, i64 %89
  %91 = getelementptr inbounds nuw i8, ptr %0, i64 120
  %92 = load ptr, ptr %91, align 8, !tbaa !52
  %93 = getelementptr inbounds nuw i8, ptr %0, i64 112
  %94 = load i64, ptr %93, align 8, !tbaa !36
  %95 = getelementptr inbounds nuw i8, ptr %92, i64 %94
  %96 = icmp ugt ptr %90, %95
  br i1 %96, label %97, label %109

97:                                               ; preds = %86
  %98 = load i32, ptr %16, align 8, !tbaa !53
  %99 = icmp slt i32 %98, 2
  %100 = load ptr, ptr %29, align 8, !tbaa !38
  br i1 %99, label %101, label %103

101:                                              ; preds = %97
  %102 = tail call i32 @LZ4_saveDict(ptr noundef %100, ptr noundef %92, i32 noundef 65536) #13
  br label %LZ4F_localSaveDict.exit

103:                                              ; preds = %97
  %104 = tail call i32 @LZ4_saveDictHC(ptr noundef %100, ptr noundef %92, i32 noundef 65536) #13
  br label %LZ4F_localSaveDict.exit

LZ4F_localSaveDict.exit:                          ; preds = %101, %103
  %105 = phi i32 [ %102, %101 ], [ %104, %103 ]
  %106 = load ptr, ptr %91, align 8, !tbaa !52
  %107 = sext i32 %105 to i64
  %108 = getelementptr inbounds i8, ptr %106, i64 %107
  store ptr %108, ptr %27, align 8, !tbaa !57
  br label %109

109:                                              ; preds = %11, %8, %86, %LZ4F_localSaveDict.exit, %4
  %.0 = phi i64 [ 0, %4 ], [ %80, %LZ4F_localSaveDict.exit ], [ %80, %86 ], [ -20, %8 ], [ -11, %11 ]
  ret i64 %.0
}